target datalayout = "e-m:e-p270:32:32-p271:32:32-p272:64:64-i64:64-i128:128-f80:128-n8:16:32:64-S128"
target triple = "x86_64-pc-linux-gnu"

%struct.print_field = type { i32, ptr, ptr, i16 }

@print_fields_parsable_print = dso_local global i32 0, align 4
@fields_delimiter = dso_local global ptr null, align 8
@.str = private unnamed_addr constant [3 x i8] c"%s\00", align 1
@.str.1 = private unnamed_addr constant [5 x i8] c"%s%s\00", align 1
@.str.2 = private unnamed_addr constant [4 x i8] c"%s|\00", align 1
@.str.7 = private unnamed_addr constant [2 x i8] c" \00", align 1
@.str.8 = private unnamed_addr constant [2 x i8] c"|\00", align 1
@.str.9 = private unnamed_addr constant [5 x i8] c"%*s \00", align 1
@.str.29 = private unnamed_addr constant [6 x i8] c"%-*s \00", align 1

; Function Attrs: nounwind uwtable
define dso_local void @print_fields_time_from_secs(ptr noundef %0, ptr noundef %1, i32 noundef %2) #0 {
  %4 = alloca ptr, align 8
  %5 = alloca ptr, align 8
  %6 = alloca i32, align 4
  %7 = alloca i32, align 4
  %8 = alloca i64, align 8
  %9 = alloca [32 x i8], align 16
  store ptr %0, ptr %4, align 8
  store ptr %1, ptr %5, align 8
  store i32 %2, ptr %6, align 4
  call void @llvm.lifetime.start.p0(i64 4, ptr %7) #10
  %10 = load ptr, ptr %4, align 8
  %11 = getelementptr inbounds nuw %struct.print_field, ptr %10, i32 0, i32 0
  %12 = load i32, ptr %11, align 8
  %13 = call i32 @llvm.abs.i32(i32 %12, i1 true)
  store i32 %13, ptr %7, align 4
  call void @llvm.lifetime.start.p0(i64 8, ptr %8) #10
  store i64 -2, ptr %8, align 8
  %14 = load ptr, ptr %5, align 8
  %15 = icmp ne ptr %14, null
  br i1 %15, label %16, label %19

16:                                               ; preds = %3
  %17 = load ptr, ptr %5, align 8
  %18 = load i64, ptr %17, align 8
  store i64 %18, ptr %8, align 8
  br label %19

19:                                               ; preds = %16, %3
  %20 = load i64, ptr %8, align 8
  %21 = icmp eq i64 %20, -2
  br i1 %21, label %25, label %22

22:                                               ; preds = %19
  %23 = load i64, ptr %8, align 8
  %24 = icmp eq i64 %23, -1
  br i1 %24, label %25, label %57

25:                                               ; preds = %22, %19
  %26 = load i32, ptr @print_fields_parsable_print, align 4
  %27 = icmp eq i32 %26, 2
  br i1 %27, label %28, label %32

28:                                               ; preds = %25
  %29 = load i32, ptr %6, align 4
  %30 = icmp ne i32 %29, 0
  br i1 %30, label %31, label %32

31:                                               ; preds = %28
  br label %56

32:                                               ; preds = %28, %25
  %33 = load i32, ptr @print_fields_parsable_print, align 4
  %34 = icmp ne i32 %33, 0
  br i1 %34, label %35, label %40

35:                                               ; preds = %32
  %36 = load ptr, ptr @fields_delimiter, align 8
  %37 = icmp ne ptr %36, null
  br i1 %37, label %40, label %38

38:                                               ; preds = %35
  %39 = call i32 (ptr, ...) @printf(ptr noundef @.str.8)
  br label %55

40:                                               ; preds = %35, %32
  %41 = load i32, ptr @print_fields_parsable_print, align 4
  %42 = icmp ne i32 %41, 0
  br i1 %42, label %43, label %49

43:                                               ; preds = %40
  %44 = load ptr, ptr @fields_delimiter, align 8
  %45 = icmp ne ptr %44, null
  br i1 %45, label %46, label %49

46:                                               ; preds = %43
  %47 = load ptr, ptr @fields_delimiter, align 8
  %48 = call i32 (ptr, ...) @printf(ptr noundef @.str, ptr noundef %47)
  br label %54

49:                                               ; preds = %43, %40
  %50 = load ptr, ptr %4, align 8
  %51 = getelementptr inbounds nuw %struct.print_field, ptr %50, i32 0, i32 0
  %52 = load i32, ptr %51, align 8
  %53 = call i32 (ptr, ...) @printf(ptr noundef @.str.9, i32 noundef %52, ptr noundef @.str.7)
  br label %54

54:                                               ; preds = %49, %46
  br label %55

55:                                               ; preds = %54, %38
  br label %56

56:                                               ; preds = %55, %31
  br label %105

57:                                               ; preds = %22
  call void @llvm.lifetime.start.p0(i64 32, ptr %9) #10
  %58 = load i64, ptr %8, align 8
  %59 = getelementptr inbounds [32 x i8], ptr %9, i64 0, i64 0
  call void @secs2time_str(i64 noundef %58, ptr noundef %59, i32 noundef 32)
  %60 = load i32, ptr @print_fields_parsable_print, align 4
  %61 = icmp eq i32 %60, 2
  br i1 %61, label %62, label %68

62:                                               ; preds = %57
  %63 = load i32, ptr %6, align 4
  %64 = icmp ne i32 %63, 0
  br i1 %64, label %65, label %68

65:                                               ; preds = %62
  %66 = getelementptr inbounds [32 x i8], ptr %9, i64 0, i64 0
  %67 = call i32 (ptr, ...) @printf(ptr noundef @.str, ptr noundef %66)
  br label %104

68:                                               ; preds = %62, %57
  %69 = load i32, ptr @print_fields_parsable_print, align 4
  %70 = icmp ne i32 %69, 0
  br i1 %70, label %71, label %77

71:                                               ; preds = %68
  %72 = load ptr, ptr @fields_delimiter, align 8
  %73 = icmp ne ptr %72, null
  br i1 %73, label %77, label %74

74:                                               ; preds = %71
  %75 = getelementptr inbounds [32 x i8], ptr %9, i64 0, i64 0
  %76 = call i32 (ptr, ...) @printf(ptr noundef @.str.2, ptr noundef %75)
  br label %103

77:                                               ; preds = %71, %68
  %78 = load i32, ptr @print_fields_parsable_print, align 4
  %79 = icmp ne i32 %78, 0
  br i1 %79, label %80, label %87

80:                                               ; preds = %77
  %81 = load ptr, ptr @fields_delimiter, align 8
  %82 = icmp ne ptr %81, null
  br i1 %82, label %83, label %87

83:                                               ; preds = %80
  %84 = getelementptr inbounds [32 x i8], ptr %9, i64 0, i64 0
  %85 = load ptr, ptr @fields_delimiter, align 8
  %86 = call i32 (ptr, ...) @printf(ptr noundef @.str.1, ptr noundef %84, ptr noundef %85)
  br label %102

87:                                               ; preds = %80, %77
  %88 = load ptr, ptr %4, align 8
  %89 = getelementptr inbounds nuw %struct.print_field, ptr %88, i32 0, i32 0
  %90 = load i32, ptr %89, align 8
  %91 = load i32, ptr %7, align 4
  %92 = icmp eq i32 %90, %91
  br i1 %92, label %93, label %97

93:                                               ; preds = %87
  %94 = load i32, ptr %7, align 4
  %95 = getelementptr inbounds [32 x i8], ptr %9, i64 0, i64 0
  %96 = call i32 (ptr, ...) @printf(ptr noundef @.str.9, i32 noundef %94, ptr noundef %95)
  br label %101

97:                                               ; preds = %87
  %98 = load i32, ptr %7, align 4
  %99 = getelementptr inbounds [32 x i8], ptr %9, i64 0, i64 0
  %100 = call i32 (ptr, ...) @printf(ptr noundef @.str.29, i32 noundef %98, ptr noundef %99)
  br label %101

101:                                              ; preds = %97, %93
  br label %102

102:                                              ; preds = %101, %83
  br label %103

103:                                              ; preds = %102, %74
  br label %104

104:                                              ; preds = %103, %65
  call void @llvm.lifetime.end.p0(i64 32, ptr %9) #10
  br label %105

105:                                              ; preds = %104, %56
  call void @llvm.lifetime.end.p0(i64 8, ptr %8) #10
  call void @llvm.lifetime.end.p0(i64 4, ptr %7) #10
  ret void
}