; Function Attrs: nounwind uwtable
define dso_local void @print_fields_time_from_secs(ptr noundef readonly captures(none) %0, ptr noundef readonly captures(address_is_null) %1, i32 noundef %2) local_unnamed_addr #0 {
  %4 = alloca [32 x i8], align 16
  %5 = load i32, ptr %0, align 8
  %6 = tail call i32 @llvm.abs.i32(i32 %5, i1 true)
  %.not = icmp eq ptr %1, null
  br i1 %.not, label %.thread, label %7

7:                                                ; preds = %3
  %8 = load i64, ptr %1, align 8
  %or.cond = icmp ugt i64 %8, -3
  br i1 %or.cond, label %.thread, label %25

.thread:                                          ; preds = %3, %7
  %9 = load i32, ptr @print_fields_parsable_print, align 4
  %10 = icmp eq i32 %9, 2
  %11 = icmp ne i32 %2, 0
  %or.cond3 = and i1 %11, %10
  br i1 %or.cond3, label %49, label %12

12:                                               ; preds = %.thread
  %13 = icmp eq i32 %9, 0
  %14 = load ptr, ptr @fields_delimiter, align 8
  %15 = icmp ne ptr %14, null
  %or.cond5 = select i1 %13, i1 true, i1 %15
  br i1 %or.cond5, label %19, label %16

16:                                               ; preds = %12
  %17 = load ptr, ptr @stdout, align 8
  %18 = tail call noundef i32 @putc(i32 noundef 124, ptr noundef %17)
  br label %49

19:                                               ; preds = %12
  %20 = icmp ne i32 %9, 0
  %or.cond7 = select i1 %20, i1 %15, i1 false
  br i1 %or.cond7, label %21, label %23

21:                                               ; preds = %19
  %22 = tail call i32 (ptr, ...) @printf(ptr noundef nonnull dereferenceable(1) @.str, ptr noundef nonnull %14)
  br label %49

23:                                               ; preds = %19
  %24 = tail call i32 (ptr, ...) @printf(ptr noundef nonnull dereferenceable(1) @.str.9, i32 noundef %5, ptr noundef nonnull @.str.7)
  br label %49

25:                                               ; preds = %7
  call void @llvm.lifetime.start.p0(i64 32, ptr nonnull %4) #11
  call void @secs2time_str(i64 noundef %8, ptr noundef nonnull %4, i32 noundef 32) #11
  %26 = load i32, ptr @print_fields_parsable_print, align 4
  %27 = icmp eq i32 %26, 2
  %28 = icmp ne i32 %2, 0
  %or.cond9 = and i1 %28, %27
  br i1 %or.cond9, label %29, label %31

29:                                               ; preds = %25
  %30 = call i32 (ptr, ...) @printf(ptr noundef nonnull dereferenceable(1) @.str, ptr noundef nonnull %4)
  br label %48

31:                                               ; preds = %25
  %32 = icmp eq i32 %26, 0
  %33 = load ptr, ptr @fields_delimiter, align 8
  %34 = icmp ne ptr %33, null
  %or.cond11 = select i1 %32, i1 true, i1 %34
  br i1 %or.cond11, label %37, label %35

35:                                               ; preds = %31
  %36 = call i32 (ptr, ...) @printf(ptr noundef nonnull dereferenceable(1) @.str.2, ptr noundef nonnull %4)
  br label %48

37:                                               ; preds = %31
  %38 = icmp ne i32 %26, 0
  %or.cond13 = select i1 %38, i1 %34, i1 false
  br i1 %or.cond13, label %39, label %41

39:                                               ; preds = %37
  %40 = call i32 (ptr, ...) @printf(ptr noundef nonnull dereferenceable(1) @.str.1, ptr noundef nonnull %4, ptr noundef nonnull %33)
  br label %48

41:                                               ; preds = %37
  %42 = load i32, ptr %0, align 8
  %43 = icmp eq i32 %42, %6
  br i1 %43, label %44, label %46

44:                                               ; preds = %41
  %45 = call i32 (ptr, ...) @printf(ptr noundef nonnull dereferenceable(1) @.str.9, i32 noundef %6, ptr noundef nonnull %4)
  br label %48

46:                                               ; preds = %41
  %47 = call i32 (ptr, ...) @printf(ptr noundef nonnull dereferenceable(1) @.str.29, i32 noundef %6, ptr noundef nonnull %4)
  br label %48

48:                                               ; preds = %35, %44, %46, %39, %29
  call void @llvm.lifetime.end.p0(i64 32, ptr nonnull %4) #11
  br label %49

49:                                               ; preds = %.thread, %21, %23, %16, %48
  ret void
}